target datalayout = "e-m:e-p270:32:32-p271:32:32-p272:64:64-i64:64-i128:128-f80:128-n8:16:32:64-S128"
target triple = "x86_64-unknown-linux-gnu"

; Function Attrs: nounwind sspstrong uwtable
define dso_local void @slow_bitmap_complement(ptr noundef %dst, ptr noundef %src, i64 noundef %bits) #0 {
entry:
  %dst.addr = alloca ptr, align 8
  %src.addr = alloca ptr, align 8
  %bits.addr = alloca i64, align 8
  %k = alloca i64, align 8
  %lim = alloca i64, align 8
  store ptr %dst, ptr %dst.addr, align 8
  store ptr %src, ptr %src.addr, align 8
  store i64 %bits, ptr %bits.addr, align 8
  %0 = load i64, ptr %bits.addr, align 8
  %div = udiv i64 %0, 64
  store i64 %div, ptr %lim, align 8
  store i64 0, ptr %k, align 8
  br label %for.cond

for.cond:                                         ; preds = %for.inc, %entry
  %1 = load i64, ptr %k, align 8
  %2 = load i64, ptr %lim, align 8
  %cmp = icmp slt i64 %1, %2
  br i1 %cmp, label %for.body, label %for.end

for.body:                                         ; preds = %for.cond
  %3 = load ptr, ptr %src.addr, align 8
  %4 = load i64, ptr %k, align 8
  %arrayidx = getelementptr i64, ptr %3, i64 %4
  %5 = load i64, ptr %arrayidx, align 8
  %not = xor i64 %5, -1
  %6 = load ptr, ptr %dst.addr, align 8
  %7 = load i64, ptr %k, align 8
  %arrayidx1 = getelementptr i64, ptr %6, i64 %7
  store i64 %not, ptr %arrayidx1, align 8
  br label %for.inc

for.inc:                                          ; preds = %for.body
  %8 = load i64, ptr %k, align 8
  %inc = add i64 %8, 1
  store i64 %inc, ptr %k, align 8
  br label %for.cond, !llvm.loop !9

for.end:                                          ; preds = %for.cond
  %9 = load i64, ptr %bits.addr, align 8
  %rem = urem i64 %9, 64
  %tobool = icmp ne i64 %rem, 0
  br i1 %tobool, label %if.then, label %if.end

if.then:                                          ; preds = %for.end
  %10 = load ptr, ptr %src.addr, align 8
  %11 = load i64, ptr %k, align 8
  %arrayidx2 = getelementptr i64, ptr %10, i64 %11
  %12 = load i64, ptr %arrayidx2, align 8
  %not3 = xor i64 %12, -1
  %13 = load i64, ptr %bits.addr, align 8
  %sub = sub i64 0, %13
  %and = and i64 %sub, 63
  %shr = lshr i64 -1, %and
  %and4 = and i64 %not3, %shr
  %14 = load ptr, ptr %dst.addr, align 8
  %15 = load i64, ptr %k, align 8
  %arrayidx5 = getelementptr i64, ptr %14, i64 %15
  store i64 %and4, ptr %arrayidx5, align 8
  br label %if.end

if.end:                                           ; preds = %if.then, %for.end
  ret void
}