; Function Attrs: nofree norecurse nosync nounwind sspstrong memory(argmem: readwrite) uwtable
define dso_local void @slow_bitmap_complement(ptr noundef writeonly captures(none) %dst, ptr noundef readonly captures(none) %src, i64 noundef %bits) local_unnamed_addr #1 {
entry:
  %div10 = lshr i64 %bits, 6
  %cmp11.not = icmp ult i64 %bits, 64
  br i1 %cmp11.not, label %for.end, label %for.body

for.body:                                         ; preds = %entry, %for.body
  %k.012 = phi i64 [ %inc, %for.body ], [ 0, %entry ]
  %arrayidx = getelementptr i64, ptr %src, i64 %k.012
  %0 = load i64, ptr %arrayidx, align 8
  %not = xor i64 %0, -1
  %arrayidx1 = getelementptr i64, ptr %dst, i64 %k.012
  store i64 %not, ptr %arrayidx1, align 8
  %inc = add nuw nsw i64 %k.012, 1
  %exitcond.not = icmp eq i64 %inc, %div10
  br i1 %exitcond.not, label %for.end, label %for.body, !llvm.loop !9

for.end:                                          ; preds = %for.body, %entry
  %k.0.lcssa = phi i64 [ 0, %entry ], [ %div10, %for.body ]
  %rem = and i64 %bits, 63
  %tobool.not = icmp eq i64 %rem, 0
  br i1 %tobool.not, label %if.end, label %if.then

if.then:                                          ; preds = %for.end
  %arrayidx2 = getelementptr i64, ptr %src, i64 %k.0.lcssa
  %1 = load i64, ptr %arrayidx2, align 8
  %not3 = xor i64 %1, -1
  %sub = sub i64 0, %bits
  %and = and i64 %sub, 63
  %shr = lshr i64 -1, %and
  %and4 = and i64 %shr, %not3
  %arrayidx5 = getelementptr i64, ptr %dst, i64 %k.0.lcssa
  store i64 %and4, ptr %arrayidx5, align 8
  br label %if.end

if.end:                                           ; preds = %if.then, %for.end
  ret void
}